target datalayout = "e-m:e-p270:32:32-p271:32:32-p272:64:64-i64:64-i128:128-f80:128-n8:16:32:64-S128"
target triple = "x86_64-pc-linux-gnu"

%"class.clang::SourceLocation" = type { i32 }
%"class.clang::SourceRange" = type { %"class.clang::SourceLocation", %"class.clang::SourceLocation" }
%"class.clang::AttributeCommonInfo" = type { ptr, ptr, %"class.clang::SourceRange", %"class.clang::SourceLocation", i32 }
%"class.clang::InheritableAttr.base" = type { %"class.clang::Attr.base" }
%"class.clang::Attr.base" = type <{ %"class.clang::AttributeCommonInfo", i16, i8 }>
%"class.clang::AnnotateAttr" = type { %"class.clang::InheritableParamAttr.base", i32, ptr, i32, ptr, i32, ptr }
%"class.clang::InheritableParamAttr.base" = type { %"class.clang::InheritableAttr.base" }

; Function Attrs: mustprogress nounwind uwtable
define linkonce_odr hidden noundef ptr @_ZNK5clang12AnnotateAttr15delayedArgs_endEv(ptr noundef nonnull align 8 dereferenceable(80) %0) #0 comdat align 2 {
  %2 = alloca ptr, align 8
  store ptr %0, ptr %2, align 8
  %3 = load ptr, ptr %2, align 8
  %4 = getelementptr inbounds nuw %"class.clang::AnnotateAttr", ptr %3, i32 0, i32 6
  %5 = load ptr, ptr %4, align 8
  %6 = getelementptr inbounds nuw %"class.clang::AnnotateAttr", ptr %3, i32 0, i32 5
  %7 = load i32, ptr %6, align 8
  %8 = zext i32 %7 to i64
  %9 = getelementptr inbounds ptr, ptr %5, i64 %8
  ret ptr %9
}

; Function Attrs: mustprogress nounwind uwtable
define linkonce_odr hidden noundef ptr @_ZNK5clang12AnnotateAttr17delayedArgs_beginEv(ptr noundef nonnull align 8 dereferenceable(80) %0) #0 comdat align 2 {
  %2 = alloca ptr, align 8
  store ptr %0, ptr %2, align 8
  %3 = load ptr, ptr %2, align 8
  %4 = getelementptr inbounds nuw %"class.clang::AnnotateAttr", ptr %3, i32 0, i32 6
  %5 = load ptr, ptr %4, align 8
  ret ptr %5
}

; Function Attrs: mustprogress nounwind uwtable
define linkonce_odr hidden noundef ptr @_ZNK5clang12AnnotateAttr8args_endEv(ptr noundef nonnull align 8 dereferenceable(80) %0) #0 comdat align 2 {
  %2 = alloca ptr, align 8
  store ptr %0, ptr %2, align 8
  %3 = load ptr, ptr %2, align 8
  %4 = getelementptr inbounds nuw %"class.clang::AnnotateAttr", ptr %3, i32 0, i32 4
  %5 = load ptr, ptr %4, align 8
  %6 = getelementptr inbounds nuw %"class.clang::AnnotateAttr", ptr %3, i32 0, i32 3
  %7 = load i32, ptr %6, align 8
  %8 = zext i32 %7 to i64
  %9 = getelementptr inbounds ptr, ptr %5, i64 %8
  ret ptr %9
}

; Function Attrs: mustprogress nounwind uwtable
define linkonce_odr hidden noundef ptr @_ZNK5clang12AnnotateAttr10args_beginEv(ptr noundef nonnull align 8 dereferenceable(80) %0) #0 comdat align 2 {
  %2 = alloca ptr, align 8
  store ptr %0, ptr %2, align 8
  %3 = load ptr, ptr %2, align 8
  %4 = getelementptr inbounds nuw %"class.clang::AnnotateAttr", ptr %3, i32 0, i32 4
  %5 = load ptr, ptr %4, align 8
  ret ptr %5
}

; Function Attrs: mustprogress nounwind uwtable
define internal noundef zeroext i1 @_ZN5clang19RecursiveASTVisitorIN12_GLOBAL__N_121PCHContainerGenerator16DebugTypeVisitorEE17VisitAnnotateAttrEPNS_12AnnotateAttrE(ptr noundef nonnull align 1 dereferenceable(1) %0, ptr noundef %1) #0 align 2 {
  %3 = alloca ptr, align 8
  %4 = alloca ptr, align 8
  store ptr %0, ptr %3, align 8
  store ptr %1, ptr %4, align 8
  ret i1 true
}

; Function Attrs: mustprogress nounwind uwtable
define internal noundef zeroext i1 @_ZN5clang19RecursiveASTVisitorIN12_GLOBAL__N_121PCHContainerGenerator16DebugTypeVisitorEE9VisitAttrEPNS_4AttrE(ptr noundef nonnull align 1 dereferenceable(1) %0, ptr noundef %1) #0 align 2 {
  %3 = alloca ptr, align 8
  %4 = alloca ptr, align 8
  store ptr %0, ptr %3, align 8
  store ptr %1, ptr %4, align 8
  ret i1 true
}

; Function Attrs: mustprogress nounwind uwtable
define internal noundef nonnull align 8 dereferenceable(16) ptr @_ZN5clang19RecursiveASTVisitorIN12_GLOBAL__N_121PCHContainerGenerator16DebugTypeVisitorEE10getDerivedEv(ptr noundef nonnull align 1 dereferenceable(1) %0) #0 align 2 {
  %2 = alloca ptr, align 8
  store ptr %0, ptr %2, align 8
  %3 = load ptr, ptr %2, align 8
  ret ptr %3
}

; Function Attrs: mustprogress nounwind uwtable
define internal noundef zeroext i1 @_ZN5clang19RecursiveASTVisitorIN12_GLOBAL__N_121PCHContainerGenerator16DebugTypeVisitorEE20TraverseAnnotateAttrEPNS_12AnnotateAttrE(ptr noundef nonnull align 1 dereferenceable(1) %0, ptr noundef %1) #0 align 2 {
  %3 = alloca i1, align 1
  %4 = alloca ptr, align 8
  %5 = alloca ptr, align 8
  %6 = alloca ptr, align 8
  %7 = alloca ptr, align 8
  %8 = alloca ptr, align 8
  %9 = alloca ptr, align 8
  store ptr %0, ptr %4, align 8
  store ptr %1, ptr %5, align 8
  %10 = load ptr, ptr %4, align 8
  %11 = call noundef nonnull align 8 dereferenceable(16) ptr @_ZN5clang19RecursiveASTVisitorIN12_GLOBAL__N_121PCHContainerGenerator16DebugTypeVisitorEE10getDerivedEv(ptr noundef nonnull align 1 dereferenceable(1) %10)
  %12 = load ptr, ptr %5, align 8
  %13 = call noundef zeroext i1 @_ZN5clang19RecursiveASTVisitorIN12_GLOBAL__N_121PCHContainerGenerator16DebugTypeVisitorEE9VisitAttrEPNS_4AttrE(ptr noundef nonnull align 1 dereferenceable(1) %11, ptr noundef %12)
  br i1 %13, label %15, label %14

14:                                               ; preds = %2
  store i1 false, ptr %3, align 1
  br label %59

15:                                               ; preds = %2
  %16 = call noundef nonnull align 8 dereferenceable(16) ptr @_ZN5clang19RecursiveASTVisitorIN12_GLOBAL__N_121PCHContainerGenerator16DebugTypeVisitorEE10getDerivedEv(ptr noundef nonnull align 1 dereferenceable(1) %10)
  %17 = load ptr, ptr %5, align 8
  %18 = call noundef zeroext i1 @_ZN5clang19RecursiveASTVisitorIN12_GLOBAL__N_121PCHContainerGenerator16DebugTypeVisitorEE17VisitAnnotateAttrEPNS_12AnnotateAttrE(ptr noundef nonnull align 1 dereferenceable(1) %16, ptr noundef %17)
  br i1 %18, label %20, label %19

19:                                               ; preds = %15
  store i1 false, ptr %3, align 1
  br label %59

20:                                               ; preds = %15
  %21 = load ptr, ptr %5, align 8
  %22 = call noundef ptr @_ZNK5clang12AnnotateAttr10args_beginEv(ptr noundef nonnull align 8 dereferenceable(80) %21)
  store ptr %22, ptr %6, align 8
  %23 = load ptr, ptr %5, align 8
  %24 = call noundef ptr @_ZNK5clang12AnnotateAttr8args_endEv(ptr noundef nonnull align 8 dereferenceable(80) %23)
  store ptr %24, ptr %7, align 8
  br label %25

25:                                               ; preds = %36, %20
  %26 = load ptr, ptr %6, align 8
  %27 = load ptr, ptr %7, align 8
  %28 = icmp ne ptr %26, %27
  br i1 %28, label %29, label %39

29:                                               ; preds = %25
  %30 = call noundef nonnull align 8 dereferenceable(16) ptr @_ZN5clang19RecursiveASTVisitorIN12_GLOBAL__N_121PCHContainerGenerator16DebugTypeVisitorEE10getDerivedEv(ptr noundef nonnull align 1 dereferenceable(1) %10)
  %31 = load ptr, ptr %6, align 8
  %32 = load ptr, ptr %31, align 8
  %33 = call noundef zeroext i1 @_ZN5clang19RecursiveASTVisitorIN12_GLOBAL__N_121PCHContainerGenerator16DebugTypeVisitorEE12TraverseStmtEPNS_4StmtEPN4llvm15SmallVectorImplINS7_14PointerIntPairIS6_Lj1EbNS7_21PointerLikeTypeTraitsIS6_EENS7_18PointerIntPairInfoIS6_Lj1ESB_EEEEEE(ptr noundef nonnull align 1 dereferenceable(1) %30, ptr noundef %32, ptr noundef null)
  br i1 %33, label %35, label %34

34:                                               ; preds = %29
  store i1 false, ptr %3, align 1
  br label %59

35:                                               ; preds = %29
  br label %36

36:                                               ; preds = %35
  %37 = load ptr, ptr %6, align 8
  %38 = getelementptr inbounds ptr, ptr %37, i32 1
  store ptr %38, ptr %6, align 8
  br label %25, !llvm.loop !46

39:                                               ; preds = %25
  %40 = load ptr, ptr %5, align 8
  %41 = call noundef ptr @_ZNK5clang12AnnotateAttr17delayedArgs_beginEv(ptr noundef nonnull align 8 dereferenceable(80) %40)
  store ptr %41, ptr %8, align 8
  %42 = load ptr, ptr %5, align 8
  %43 = call noundef ptr @_ZNK5clang12AnnotateAttr15delayedArgs_endEv(ptr noundef nonnull align 8 dereferenceable(80) %42)
  store ptr %43, ptr %9, align 8
  br label %44

44:                                               ; preds = %55, %39
  %45 = load ptr, ptr %8, align 8
  %46 = load ptr, ptr %9, align 8
  %47 = icmp ne ptr %45, %46
  br i1 %47, label %48, label %58

48:                                               ; preds = %44
  %49 = call noundef nonnull align 8 dereferenceable(16) ptr @_ZN5clang19RecursiveASTVisitorIN12_GLOBAL__N_121PCHContainerGenerator16DebugTypeVisitorEE10getDerivedEv(ptr noundef nonnull align 1 dereferenceable(1) %10)
  %50 = load ptr, ptr %8, align 8
  %51 = load ptr, ptr %50, align 8
  %52 = call noundef zeroext i1 @_ZN5clang19RecursiveASTVisitorIN12_GLOBAL__N_121PCHContainerGenerator16DebugTypeVisitorEE12TraverseStmtEPNS_4StmtEPN4llvm15SmallVectorImplINS7_14PointerIntPairIS6_Lj1EbNS7_21PointerLikeTypeTraitsIS6_EENS7_18PointerIntPairInfoIS6_Lj1ESB_EEEEEE(ptr noundef nonnull align 1 dereferenceable(1) %49, ptr noundef %51, ptr noundef null)
  br i1 %52, label %54, label %53

53:                                               ; preds = %48
  store i1 false, ptr %3, align 1
  br label %59

54:                                               ; preds = %48
  br label %55

55:                                               ; preds = %54
  %56 = load ptr, ptr %8, align 8
  %57 = getelementptr inbounds ptr, ptr %56, i32 1
  store ptr %57, ptr %8, align 8
  br label %44, !llvm.loop !47

58:                                               ; preds = %44
  store i1 true, ptr %3, align 1
  br label %59

59:                                               ; preds = %58, %53, %34, %19, %14
  %60 = load i1, ptr %3, align 1
  ret i1 %60
}